target datalayout = "e-m:e-p270:32:32-p271:32:32-p272:64:64-i64:64-i128:128-f80:128-n8:16:32:64-S128"
target triple = "x86_64-pc-linux-gnu"

; Function Attrs: nounwind uwtable
define void @arkFreeVecArray(i32 noundef %0, ptr noundef %1, i64 noundef %2, ptr noundef %3, i64 noundef %4, ptr noundef %5) #0 {
  %7 = alloca i32, align 4
  %8 = alloca ptr, align 8
  %9 = alloca i64, align 8
  %10 = alloca ptr, align 8
  %11 = alloca i64, align 8
  %12 = alloca ptr, align 8
  store i32 %0, ptr %7, align 4, !tbaa !38
  store ptr %1, ptr %8, align 8, !tbaa !220
  store i64 %2, ptr %9, align 8, !tbaa !30
  store ptr %3, ptr %10, align 8, !tbaa !222
  store i64 %4, ptr %11, align 8, !tbaa !30
  store ptr %5, ptr %12, align 8, !tbaa !222
  %13 = load ptr, ptr %8, align 8, !tbaa !220
  %14 = load ptr, ptr %13, align 8, !tbaa !89
  %15 = icmp ne ptr %14, null
  br i1 %15, label %16, label %35

16:                                               ; preds = %6
  %17 = load ptr, ptr %8, align 8, !tbaa !220
  %18 = load ptr, ptr %17, align 8, !tbaa !89
  %19 = load i32, ptr %7, align 4, !tbaa !38
  call void @N_VDestroyVectorArray(ptr noundef %18, i32 noundef %19)
  %20 = load ptr, ptr %8, align 8, !tbaa !220
  store ptr null, ptr %20, align 8, !tbaa !89
  %21 = load i32, ptr %7, align 4, !tbaa !38
  %22 = sext i32 %21 to i64
  %23 = load i64, ptr %9, align 8, !tbaa !30
  %24 = mul nsw i64 %22, %23
  %25 = load ptr, ptr %10, align 8, !tbaa !222
  %26 = load i64, ptr %25, align 8, !tbaa !30
  %27 = sub nsw i64 %26, %24
  store i64 %27, ptr %25, align 8, !tbaa !30
  %28 = load i32, ptr %7, align 4, !tbaa !38
  %29 = sext i32 %28 to i64
  %30 = load i64, ptr %11, align 8, !tbaa !30
  %31 = mul nsw i64 %29, %30
  %32 = load ptr, ptr %12, align 8, !tbaa !222
  %33 = load i64, ptr %32, align 8, !tbaa !30
  %34 = sub nsw i64 %33, %31
  store i64 %34, ptr %32, align 8, !tbaa !30
  br label %35

35:                                               ; preds = %16, %6
  ret void
}