; Function Attrs: nounwind uwtable
define void @arkFreeVecArray(i32 noundef %0, ptr noundef captures(none) %1, i64 noundef %2, ptr noundef captures(none) %3, i64 noundef %4, ptr noundef captures(none) %5) local_unnamed_addr #0 {
  %7 = load ptr, ptr %1, align 8, !tbaa !165
  %.not = icmp eq ptr %7, null
  br i1 %.not, label %16, label %8

8:                                                ; preds = %6
  tail call void @N_VDestroyVectorArray(ptr noundef nonnull %7, i32 noundef %0) #16
  store ptr null, ptr %1, align 8, !tbaa !165
  %9 = sext i32 %0 to i64
  %10 = mul nsw i64 %2, %9
  %11 = load i64, ptr %3, align 8, !tbaa !25
  %12 = sub nsw i64 %11, %10
  store i64 %12, ptr %3, align 8, !tbaa !25
  %13 = mul nsw i64 %4, %9
  %14 = load i64, ptr %5, align 8, !tbaa !25
  %15 = sub nsw i64 %14, %13
  store i64 %15, ptr %5, align 8, !tbaa !25
  br label %16

16:                                               ; preds = %8, %6
  ret void
}